target datalayout = "e-m:e-p270:32:32-p271:32:32-p272:64:64-i64:64-i128:128-f80:128-n8:16:32:64-S128"
target triple = "x86_64-pc-linux-gnu"

%struct.stbtt__buf = type { ptr, i32, i32 }
%struct.stbtt_fontinfo = type { ptr, ptr, i32, i32, i32, i32, i32, i32, i32, i32, i32, i32, i32, i32, %struct.stbtt__buf, %struct.stbtt__buf, %struct.stbtt__buf, %struct.stbtt__buf, %struct.stbtt__buf, %struct.stbtt__buf }

@.str.16 = private unnamed_addr constant [5 x i8] c"name\00", align 1

; Function Attrs: nounwind uwtable
define i32 @ttULONG(ptr noundef %0) #0 {
  %2 = alloca ptr, align 8
  store ptr %0, ptr %2, align 8, !tbaa !25
  %3 = load ptr, ptr %2, align 8, !tbaa !25
  %4 = getelementptr inbounds i8, ptr %3, i64 0
  %5 = load i8, ptr %4, align 1, !tbaa !13
  %6 = zext i8 %5 to i32
  %7 = shl i32 %6, 24
  %8 = load ptr, ptr %2, align 8, !tbaa !25
  %9 = getelementptr inbounds i8, ptr %8, i64 1
  %10 = load i8, ptr %9, align 1, !tbaa !13
  %11 = zext i8 %10 to i32
  %12 = shl i32 %11, 16
  %13 = add nsw i32 %7, %12
  %14 = load ptr, ptr %2, align 8, !tbaa !25
  %15 = getelementptr inbounds i8, ptr %14, i64 2
  %16 = load i8, ptr %15, align 1, !tbaa !13
  %17 = zext i8 %16 to i32
  %18 = shl i32 %17, 8
  %19 = add nsw i32 %13, %18
  %20 = load ptr, ptr %2, align 8, !tbaa !25
  %21 = getelementptr inbounds i8, ptr %20, i64 3
  %22 = load i8, ptr %21, align 1, !tbaa !13
  %23 = zext i8 %22 to i32
  %24 = add nsw i32 %19, %23
  ret i32 %24
}

; Function Attrs: nounwind uwtable
define zeroext i16 @ttUSHORT(ptr noundef %0) #0 {
  %2 = alloca ptr, align 8
  store ptr %0, ptr %2, align 8, !tbaa !25
  %3 = load ptr, ptr %2, align 8, !tbaa !25
  %4 = getelementptr inbounds i8, ptr %3, i64 0
  %5 = load i8, ptr %4, align 1, !tbaa !13
  %6 = zext i8 %5 to i32
  %7 = mul nsw i32 %6, 256
  %8 = load ptr, ptr %2, align 8, !tbaa !25
  %9 = getelementptr inbounds i8, ptr %8, i64 1
  %10 = load i8, ptr %9, align 1, !tbaa !13
  %11 = zext i8 %10 to i32
  %12 = add nsw i32 %7, %11
  %13 = trunc i32 %12 to i16
  ret i16 %13
}

; Function Attrs: nounwind uwtable
define i32 @stbtt__find_table(ptr noundef %0, i32 noundef %1, ptr noundef %2) #0 {
  %4 = alloca i32, align 4
  %5 = alloca ptr, align 8
  %6 = alloca i32, align 4
  %7 = alloca ptr, align 8
  %8 = alloca i32, align 4
  %9 = alloca i32, align 4
  %10 = alloca i32, align 4
  %11 = alloca i32, align 4
  %12 = alloca i32, align 4
  store ptr %0, ptr %5, align 8, !tbaa !25
  store i32 %1, ptr %6, align 4, !tbaa !14
  store ptr %2, ptr %7, align 8, !tbaa !25
  call void @llvm.lifetime.start.p0(i64 4, ptr %8) #8
  %13 = load ptr, ptr %5, align 8, !tbaa !25
  %14 = load i32, ptr %6, align 4, !tbaa !14
  %15 = zext i32 %14 to i64
  %16 = getelementptr inbounds nuw i8, ptr %13, i64 %15
  %17 = getelementptr inbounds i8, ptr %16, i64 4
  %18 = call zeroext i16 @ttUSHORT(ptr noundef %17)
  %19 = zext i16 %18 to i32
  store i32 %19, ptr %8, align 4, !tbaa !14
  call void @llvm.lifetime.start.p0(i64 4, ptr %9) #8
  %20 = load i32, ptr %6, align 4, !tbaa !14
  %21 = add i32 %20, 12
  store i32 %21, ptr %9, align 4, !tbaa !14
  call void @llvm.lifetime.start.p0(i64 4, ptr %10) #8
  store i32 0, ptr %10, align 4, !tbaa !14
  br label %22

22:                                               ; preds = %97, %3
  %23 = load i32, ptr %10, align 4, !tbaa !14
  %24 = load i32, ptr %8, align 4, !tbaa !14
  %25 = icmp slt i32 %23, %24
  br i1 %25, label %26, label %100

26:                                               ; preds = %22
  call void @llvm.lifetime.start.p0(i64 4, ptr %11) #8
  %27 = load i32, ptr %9, align 4, !tbaa !14
  %28 = load i32, ptr %10, align 4, !tbaa !14
  %29 = mul nsw i32 16, %28
  %30 = add i32 %27, %29
  store i32 %30, ptr %11, align 4, !tbaa !14
  %31 = load ptr, ptr %5, align 8, !tbaa !25
  %32 = load i32, ptr %11, align 4, !tbaa !14
  %33 = zext i32 %32 to i64
  %34 = getelementptr inbounds nuw i8, ptr %31, i64 %33
  %35 = getelementptr inbounds i8, ptr %34, i64 0
  %36 = getelementptr inbounds i8, ptr %35, i64 0
  %37 = load i8, ptr %36, align 1, !tbaa !13
  %38 = zext i8 %37 to i32
  %39 = load ptr, ptr %7, align 8, !tbaa !25
  %40 = getelementptr inbounds i8, ptr %39, i64 0
  %41 = load i8, ptr %40, align 1, !tbaa !13
  %42 = sext i8 %41 to i32
  %43 = icmp eq i32 %38, %42
  br i1 %43, label %44, label %93

44:                                               ; preds = %26
  %45 = load ptr, ptr %5, align 8, !tbaa !25
  %46 = load i32, ptr %11, align 4, !tbaa !14
  %47 = zext i32 %46 to i64
  %48 = getelementptr inbounds nuw i8, ptr %45, i64 %47
  %49 = getelementptr inbounds i8, ptr %48, i64 0
  %50 = getelementptr inbounds i8, ptr %49, i64 1
  %51 = load i8, ptr %50, align 1, !tbaa !13
  %52 = zext i8 %51 to i32
  %53 = load ptr, ptr %7, align 8, !tbaa !25
  %54 = getelementptr inbounds i8, ptr %53, i64 1
  %55 = load i8, ptr %54, align 1, !tbaa !13
  %56 = sext i8 %55 to i32
  %57 = icmp eq i32 %52, %56
  br i1 %57, label %58, label %93

58:                                               ; preds = %44
  %59 = load ptr, ptr %5, align 8, !tbaa !25
  %60 = load i32, ptr %11, align 4, !tbaa !14
  %61 = zext i32 %60 to i64
  %62 = getelementptr inbounds nuw i8, ptr %59, i64 %61
  %63 = getelementptr inbounds i8, ptr %62, i64 0
  %64 = getelementptr inbounds i8, ptr %63, i64 2
  %65 = load i8, ptr %64, align 1, !tbaa !13
  %66 = zext i8 %65 to i32
  %67 = load ptr, ptr %7, align 8, !tbaa !25
  %68 = getelementptr inbounds i8, ptr %67, i64 2
  %69 = load i8, ptr %68, align 1, !tbaa !13
  %70 = sext i8 %69 to i32
  %71 = icmp eq i32 %66, %70
  br i1 %71, label %72, label %93

72:                                               ; preds = %58
  %73 = load ptr, ptr %5, align 8, !tbaa !25
  %74 = load i32, ptr %11, align 4, !tbaa !14
  %75 = zext i32 %74 to i64
  %76 = getelementptr inbounds nuw i8, ptr %73, i64 %75
  %77 = getelementptr inbounds i8, ptr %76, i64 0
  %78 = getelementptr inbounds i8, ptr %77, i64 3
  %79 = load i8, ptr %78, align 1, !tbaa !13
  %80 = zext i8 %79 to i32
  %81 = load ptr, ptr %7, align 8, !tbaa !25
  %82 = getelementptr inbounds i8, ptr %81, i64 3
  %83 = load i8, ptr %82, align 1, !tbaa !13
  %84 = sext i8 %83 to i32
  %85 = icmp eq i32 %80, %84
  br i1 %85, label %86, label %93

86:                                               ; preds = %72
  %87 = load ptr, ptr %5, align 8, !tbaa !25
  %88 = load i32, ptr %11, align 4, !tbaa !14
  %89 = zext i32 %88 to i64
  %90 = getelementptr inbounds nuw i8, ptr %87, i64 %89
  %91 = getelementptr inbounds i8, ptr %90, i64 8
  %92 = call i32 @ttULONG(ptr noundef %91)
  store i32 %92, ptr %4, align 4
  store i32 1, ptr %12, align 4
  br label %94

93:                                               ; preds = %72, %58, %44, %26
  store i32 0, ptr %12, align 4
  br label %94

94:                                               ; preds = %93, %86
  call void @llvm.lifetime.end.p0(i64 4, ptr %11) #8
  %95 = load i32, ptr %12, align 4
  switch i32 %95, label %101 [
    i32 0, label %96
  ]

96:                                               ; preds = %94
  br label %97

97:                                               ; preds = %96
  %98 = load i32, ptr %10, align 4, !tbaa !14
  %99 = add nsw i32 %98, 1
  store i32 %99, ptr %10, align 4, !tbaa !14
  br label %22, !llvm.loop !26

100:                                              ; preds = %22
  store i32 0, ptr %4, align 4
  store i32 1, ptr %12, align 4
  br label %101

101:                                              ; preds = %100, %94
  call void @llvm.lifetime.end.p0(i64 4, ptr %10) #8
  call void @llvm.lifetime.end.p0(i64 4, ptr %9) #8
  call void @llvm.lifetime.end.p0(i64 4, ptr %8) #8
  %102 = load i32, ptr %4, align 4
  ret i32 %102
}

; Function Attrs: nounwind uwtable
define ptr @stbtt_GetFontNameString(ptr noundef %0, ptr noundef %1, i32 noundef %2, i32 noundef %3, i32 noundef %4, i32 noundef %5) #0 {
  %7 = alloca ptr, align 8
  %8 = alloca ptr, align 8
  %9 = alloca ptr, align 8
  %10 = alloca i32, align 4
  %11 = alloca i32, align 4
  %12 = alloca i32, align 4
  %13 = alloca i32, align 4
  %14 = alloca i32, align 4
  %15 = alloca i32, align 4
  %16 = alloca i32, align 4
  %17 = alloca ptr, align 8
  %18 = alloca i32, align 4
  %19 = alloca i32, align 4
  %20 = alloca i32, align 4
  %21 = alloca i32, align 4
  store ptr %0, ptr %8, align 8, !tbaa !28
  store ptr %1, ptr %9, align 8, !tbaa !22
  store i32 %2, ptr %10, align 4, !tbaa !14
  store i32 %3, ptr %11, align 4, !tbaa !14
  store i32 %4, ptr %12, align 4, !tbaa !14
  store i32 %5, ptr %13, align 4, !tbaa !14
  call void @llvm.lifetime.start.p0(i64 4, ptr %14) #8
  call void @llvm.lifetime.start.p0(i64 4, ptr %15) #8
  call void @llvm.lifetime.start.p0(i64 4, ptr %16) #8
  call void @llvm.lifetime.start.p0(i64 8, ptr %17) #8
  %22 = load ptr, ptr %8, align 8, !tbaa !28
  %23 = getelementptr inbounds nuw %struct.stbtt_fontinfo, ptr %22, i32 0, i32 1
  %24 = load ptr, ptr %23, align 8, !tbaa !32
  store ptr %24, ptr %17, align 8, !tbaa !25
  call void @llvm.lifetime.start.p0(i64 4, ptr %18) #8
  %25 = load ptr, ptr %8, align 8, !tbaa !28
  %26 = getelementptr inbounds nuw %struct.stbtt_fontinfo, ptr %25, i32 0, i32 2
  %27 = load i32, ptr %26, align 8, !tbaa !33
  store i32 %27, ptr %18, align 4, !tbaa !14
  call void @llvm.lifetime.start.p0(i64 4, ptr %19) #8
  %28 = load ptr, ptr %17, align 8, !tbaa !25
  %29 = load i32, ptr %18, align 4, !tbaa !14
  %30 = call i32 @stbtt__find_table(ptr noundef %28, i32 noundef %29, ptr noundef @.str.16)
  store i32 %30, ptr %19, align 4, !tbaa !14
  %31 = load i32, ptr %19, align 4, !tbaa !14
  %32 = icmp ne i32 %31, 0
  br i1 %32, label %34, label %33

33:                                               ; preds = %6
  store ptr null, ptr %7, align 8
  store i32 1, ptr %20, align 4
  br label %130

34:                                               ; preds = %6
  %35 = load ptr, ptr %17, align 8, !tbaa !25
  %36 = load i32, ptr %19, align 4, !tbaa !14
  %37 = zext i32 %36 to i64
  %38 = getelementptr inbounds nuw i8, ptr %35, i64 %37
  %39 = getelementptr inbounds i8, ptr %38, i64 2
  %40 = call zeroext i16 @ttUSHORT(ptr noundef %39)
  %41 = zext i16 %40 to i32
  store i32 %41, ptr %15, align 4, !tbaa !14
  %42 = load i32, ptr %19, align 4, !tbaa !14
  %43 = load ptr, ptr %17, align 8, !tbaa !25
  %44 = load i32, ptr %19, align 4, !tbaa !14
  %45 = zext i32 %44 to i64
  %46 = getelementptr inbounds nuw i8, ptr %43, i64 %45
  %47 = getelementptr inbounds i8, ptr %46, i64 4
  %48 = call zeroext i16 @ttUSHORT(ptr noundef %47)
  %49 = zext i16 %48 to i32
  %50 = add i32 %42, %49
  store i32 %50, ptr %16, align 4, !tbaa !14
  store i32 0, ptr %14, align 4, !tbaa !14
  br label %51

51:                                               ; preds = %126, %34
  %52 = load i32, ptr %14, align 4, !tbaa !14
  %53 = load i32, ptr %15, align 4, !tbaa !14
  %54 = icmp slt i32 %52, %53
  br i1 %54, label %55, label %129

55:                                               ; preds = %51
  call void @llvm.lifetime.start.p0(i64 4, ptr %21) #8
  %56 = load i32, ptr %19, align 4, !tbaa !14
  %57 = add i32 %56, 6
  %58 = load i32, ptr %14, align 4, !tbaa !14
  %59 = mul nsw i32 12, %58
  %60 = add i32 %57, %59
  store i32 %60, ptr %21, align 4, !tbaa !14
  %61 = load i32, ptr %10, align 4, !tbaa !14
  %62 = load ptr, ptr %17, align 8, !tbaa !25
  %63 = load i32, ptr %21, align 4, !tbaa !14
  %64 = zext i32 %63 to i64
  %65 = getelementptr inbounds nuw i8, ptr %62, i64 %64
  %66 = getelementptr inbounds i8, ptr %65, i64 0
  %67 = call zeroext i16 @ttUSHORT(ptr noundef %66)
  %68 = zext i16 %67 to i32
  %69 = icmp eq i32 %61, %68
  br i1 %69, label %70, label %122

70:                                               ; preds = %55
  %71 = load i32, ptr %11, align 4, !tbaa !14
  %72 = load ptr, ptr %17, align 8, !tbaa !25
  %73 = load i32, ptr %21, align 4, !tbaa !14
  %74 = zext i32 %73 to i64
  %75 = getelementptr inbounds nuw i8, ptr %72, i64 %74
  %76 = getelementptr inbounds i8, ptr %75, i64 2
  %77 = call zeroext i16 @ttUSHORT(ptr noundef %76)
  %78 = zext i16 %77 to i32
  %79 = icmp eq i32 %71, %78
  br i1 %79, label %80, label %122

80:                                               ; preds = %70
  %81 = load i32, ptr %12, align 4, !tbaa !14
  %82 = load ptr, ptr %17, align 8, !tbaa !25
  %83 = load i32, ptr %21, align 4, !tbaa !14
  %84 = zext i32 %83 to i64
  %85 = getelementptr inbounds nuw i8, ptr %82, i64 %84
  %86 = getelementptr inbounds i8, ptr %85, i64 4
  %87 = call zeroext i16 @ttUSHORT(ptr noundef %86)
  %88 = zext i16 %87 to i32
  %89 = icmp eq i32 %81, %88
  br i1 %89, label %90, label %122

90:                                               ; preds = %80
  %91 = load i32, ptr %13, align 4, !tbaa !14
  %92 = load ptr, ptr %17, align 8, !tbaa !25
  %93 = load i32, ptr %21, align 4, !tbaa !14
  %94 = zext i32 %93 to i64
  %95 = getelementptr inbounds nuw i8, ptr %92, i64 %94
  %96 = getelementptr inbounds i8, ptr %95, i64 6
  %97 = call zeroext i16 @ttUSHORT(ptr noundef %96)
  %98 = zext i16 %97 to i32
  %99 = icmp eq i32 %91, %98
  br i1 %99, label %100, label %122

100:                                              ; preds = %90
  %101 = load ptr, ptr %17, align 8, !tbaa !25
  %102 = load i32, ptr %21, align 4, !tbaa !14
  %103 = zext i32 %102 to i64
  %104 = getelementptr inbounds nuw i8, ptr %101, i64 %103
  %105 = getelementptr inbounds i8, ptr %104, i64 8
  %106 = call zeroext i16 @ttUSHORT(ptr noundef %105)
  %107 = zext i16 %106 to i32
  %108 = load ptr, ptr %9, align 8, !tbaa !22
  store i32 %107, ptr %108, align 4, !tbaa !14
  %109 = load ptr, ptr %17, align 8, !tbaa !25
  %110 = load i32, ptr %16, align 4, !tbaa !14
  %111 = sext i32 %110 to i64
  %112 = getelementptr inbounds i8, ptr %109, i64 %111
  %113 = load ptr, ptr %17, align 8, !tbaa !25
  %114 = load i32, ptr %21, align 4, !tbaa !14
  %115 = zext i32 %114 to i64
  %116 = getelementptr inbounds nuw i8, ptr %113, i64 %115
  %117 = getelementptr inbounds i8, ptr %116, i64 10
  %118 = call zeroext i16 @ttUSHORT(ptr noundef %117)
  %119 = zext i16 %118 to i32
  %120 = sext i32 %119 to i64
  %121 = getelementptr inbounds i8, ptr %112, i64 %120
  store ptr %121, ptr %7, align 8
  store i32 1, ptr %20, align 4
  br label %123

122:                                              ; preds = %90, %80, %70, %55
  store i32 0, ptr %20, align 4
  br label %123

123:                                              ; preds = %122, %100
  call void @llvm.lifetime.end.p0(i64 4, ptr %21) #8
  %124 = load i32, ptr %20, align 4
  switch i32 %124, label %130 [
    i32 0, label %125
  ]

125:                                              ; preds = %123
  br label %126

126:                                              ; preds = %125
  %127 = load i32, ptr %14, align 4, !tbaa !14
  %128 = add nsw i32 %127, 1
  store i32 %128, ptr %14, align 4, !tbaa !14
  br label %51, !llvm.loop !260

129:                                              ; preds = %51
  store ptr null, ptr %7, align 8
  store i32 1, ptr %20, align 4
  br label %130

130:                                              ; preds = %129, %123, %33
  call void @llvm.lifetime.end.p0(i64 4, ptr %19) #8
  call void @llvm.lifetime.end.p0(i64 4, ptr %18) #8
  call void @llvm.lifetime.end.p0(i64 8, ptr %17) #8
  call void @llvm.lifetime.end.p0(i64 4, ptr %16) #8
  call void @llvm.lifetime.end.p0(i64 4, ptr %15) #8
  call void @llvm.lifetime.end.p0(i64 4, ptr %14) #8
  %131 = load ptr, ptr %7, align 8
  ret ptr %131
}