; Function Attrs: nofree norecurse nosync nounwind memory(read, argmem: readwrite, inaccessiblemem: none) uwtable
define ptr @stbtt_GetFontNameString(ptr noundef readonly captures(none) %0, ptr noundef writeonly captures(none) %1, i32 noundef %2, i32 noundef %3, i32 noundef %4, i32 noundef %5) local_unnamed_addr #3 {
  %7 = getelementptr inbounds nuw i8, ptr %0, i64 8
  %8 = load ptr, ptr %7, align 8, !tbaa !23
  %9 = getelementptr inbounds nuw i8, ptr %0, i64 16
  %10 = load i32, ptr %9, align 8, !tbaa !24
  %11 = zext i32 %10 to i64
  %12 = getelementptr inbounds nuw i8, ptr %8, i64 %11
  %13 = getelementptr inbounds nuw i8, ptr %12, i64 4
  %14 = load i8, ptr %13, align 1, !tbaa !12
  %15 = zext i8 %14 to i32
  %16 = shl nuw nsw i32 %15, 8
  %17 = getelementptr inbounds nuw i8, ptr %12, i64 5
  %18 = load i8, ptr %17, align 1, !tbaa !12
  %19 = zext i8 %18 to i32
  %20 = or disjoint i32 %16, %19
  %21 = add i32 %10, 12
  %.not.i = icmp eq i32 %20, 0
  br i1 %.not.i, label %stbtt__find_table.exit.thread, label %.lr.ph.i

.lr.ph.i:                                         ; preds = %6
  %wide.trip.count.i = zext nneg i32 %20 to i64
  br label %22

22:                                               ; preds = %41, %.lr.ph.i
  %indvars.iv.i = phi i64 [ 0, %.lr.ph.i ], [ %indvars.iv.next.i, %41 ]
  %indvars.iv.tr.i = trunc i64 %indvars.iv.i to i32
  %23 = shl i32 %indvars.iv.tr.i, 4
  %24 = add i32 %21, %23
  %25 = zext i32 %24 to i64
  %26 = getelementptr inbounds nuw i8, ptr %8, i64 %25
  %27 = load i8, ptr %26, align 1, !tbaa !12
  %28 = icmp eq i8 %27, 110
  br i1 %28, label %29, label %41

29:                                               ; preds = %22
  %30 = getelementptr inbounds nuw i8, ptr %26, i64 1
  %31 = load i8, ptr %30, align 1, !tbaa !12
  %32 = icmp eq i8 %31, 97
  br i1 %32, label %33, label %41

33:                                               ; preds = %29
  %34 = getelementptr inbounds nuw i8, ptr %26, i64 2
  %35 = load i8, ptr %34, align 1, !tbaa !12
  %36 = icmp eq i8 %35, 109
  br i1 %36, label %37, label %41

37:                                               ; preds = %33
  %38 = getelementptr inbounds nuw i8, ptr %26, i64 3
  %39 = load i8, ptr %38, align 1, !tbaa !12
  %40 = icmp eq i8 %39, 101
  br i1 %40, label %stbtt__find_table.exit, label %41

41:                                               ; preds = %37, %33, %29, %22
  %indvars.iv.next.i = add nuw nsw i64 %indvars.iv.i, 1
  %exitcond.not.i = icmp eq i64 %indvars.iv.next.i, %wide.trip.count.i
  br i1 %exitcond.not.i, label %stbtt__find_table.exit.thread, label %22, !llvm.loop !19

stbtt__find_table.exit:                           ; preds = %37
  %42 = getelementptr inbounds nuw i8, ptr %26, i64 8
  %43 = load i8, ptr %42, align 1, !tbaa !12
  %44 = zext i8 %43 to i32
  %45 = shl nuw i32 %44, 24
  %46 = getelementptr inbounds nuw i8, ptr %26, i64 9
  %47 = load i8, ptr %46, align 1, !tbaa !12
  %48 = zext i8 %47 to i32
  %49 = shl nuw nsw i32 %48, 16
  %50 = or disjoint i32 %49, %45
  %51 = getelementptr inbounds nuw i8, ptr %26, i64 10
  %52 = load i8, ptr %51, align 1, !tbaa !12
  %53 = zext i8 %52 to i32
  %54 = shl nuw nsw i32 %53, 8
  %55 = or disjoint i32 %50, %54
  %56 = getelementptr inbounds nuw i8, ptr %26, i64 11
  %57 = load i8, ptr %56, align 1, !tbaa !12
  %58 = zext i8 %57 to i32
  %59 = or disjoint i32 %55, %58
  %.not = icmp eq i32 %59, 0
  br i1 %.not, label %stbtt__find_table.exit.thread, label %60

60:                                               ; preds = %stbtt__find_table.exit
  %61 = zext i32 %59 to i64
  %62 = getelementptr inbounds nuw i8, ptr %8, i64 %61
  %63 = getelementptr inbounds nuw i8, ptr %62, i64 2
  %64 = load i8, ptr %63, align 1, !tbaa !12
  %65 = zext i8 %64 to i32
  %66 = shl nuw nsw i32 %65, 8
  %67 = getelementptr inbounds nuw i8, ptr %62, i64 3
  %68 = load i8, ptr %67, align 1, !tbaa !12
  %69 = zext i8 %68 to i32
  %70 = or disjoint i32 %66, %69
  %71 = getelementptr inbounds nuw i8, ptr %62, i64 4
  %72 = load i8, ptr %71, align 1, !tbaa !12
  %73 = zext i8 %72 to i32
  %74 = shl nuw nsw i32 %73, 8
  %75 = getelementptr inbounds nuw i8, ptr %62, i64 5
  %76 = load i8, ptr %75, align 1, !tbaa !12
  %77 = zext i8 %76 to i32
  %78 = or disjoint i32 %74, %77
  %79 = add i32 %78, %59
  %.not47 = icmp eq i32 %70, 0
  br i1 %.not47, label %stbtt__find_table.exit.thread, label %.lr.ph

.lr.ph:                                           ; preds = %60
  %80 = add i32 %59, 6
  %wide.trip.count = zext nneg i32 %70 to i64
  br label %81

81:                                               ; preds = %.lr.ph, %145
  %indvars.iv = phi i64 [ 0, %.lr.ph ], [ %indvars.iv.next, %145 ]
  %82 = trunc i64 %indvars.iv to i32
  %83 = mul i32 %82, 12
  %84 = add i32 %80, %83
  %85 = zext i32 %84 to i64
  %86 = getelementptr inbounds nuw i8, ptr %8, i64 %85
  %87 = load i8, ptr %86, align 1, !tbaa !12
  %88 = zext i8 %87 to i32
  %89 = shl nuw nsw i32 %88, 8
  %90 = getelementptr inbounds nuw i8, ptr %86, i64 1
  %91 = load i8, ptr %90, align 1, !tbaa !12
  %92 = zext i8 %91 to i32
  %93 = or disjoint i32 %89, %92
  %94 = icmp eq i32 %2, %93
  br i1 %94, label %95, label %145

95:                                               ; preds = %81
  %96 = getelementptr inbounds nuw i8, ptr %86, i64 2
  %97 = load i8, ptr %96, align 1, !tbaa !12
  %98 = zext i8 %97 to i32
  %99 = shl nuw nsw i32 %98, 8
  %100 = getelementptr inbounds nuw i8, ptr %86, i64 3
  %101 = load i8, ptr %100, align 1, !tbaa !12
  %102 = zext i8 %101 to i32
  %103 = or disjoint i32 %99, %102
  %104 = icmp eq i32 %3, %103
  br i1 %104, label %105, label %145

105:                                              ; preds = %95
  %106 = getelementptr inbounds nuw i8, ptr %86, i64 4
  %107 = load i8, ptr %106, align 1, !tbaa !12
  %108 = zext i8 %107 to i32
  %109 = shl nuw nsw i32 %108, 8
  %110 = getelementptr inbounds nuw i8, ptr %86, i64 5
  %111 = load i8, ptr %110, align 1, !tbaa !12
  %112 = zext i8 %111 to i32
  %113 = or disjoint i32 %109, %112
  %114 = icmp eq i32 %4, %113
  br i1 %114, label %115, label %145

115:                                              ; preds = %105
  %116 = getelementptr inbounds nuw i8, ptr %86, i64 6
  %117 = load i8, ptr %116, align 1, !tbaa !12
  %118 = zext i8 %117 to i32
  %119 = shl nuw nsw i32 %118, 8
  %120 = getelementptr inbounds nuw i8, ptr %86, i64 7
  %121 = load i8, ptr %120, align 1, !tbaa !12
  %122 = zext i8 %121 to i32
  %123 = or disjoint i32 %119, %122
  %124 = icmp eq i32 %5, %123
  br i1 %124, label %125, label %145

125:                                              ; preds = %115
  %126 = getelementptr inbounds nuw i8, ptr %86, i64 8
  %127 = load i8, ptr %126, align 1, !tbaa !12
  %128 = zext i8 %127 to i32
  %129 = shl nuw nsw i32 %128, 8
  %130 = getelementptr inbounds nuw i8, ptr %86, i64 9
  %131 = load i8, ptr %130, align 1, !tbaa !12
  %132 = zext i8 %131 to i32
  %133 = or disjoint i32 %129, %132
  store i32 %133, ptr %1, align 4, !tbaa !17
  %134 = sext i32 %79 to i64
  %135 = getelementptr inbounds i8, ptr %8, i64 %134
  %136 = getelementptr inbounds nuw i8, ptr %86, i64 10
  %137 = load i8, ptr %136, align 1, !tbaa !12
  %138 = zext i8 %137 to i64
  %139 = shl nuw nsw i64 %138, 8
  %140 = getelementptr inbounds nuw i8, ptr %86, i64 11
  %141 = load i8, ptr %140, align 1, !tbaa !12
  %142 = zext i8 %141 to i64
  %143 = or disjoint i64 %139, %142
  %144 = getelementptr inbounds nuw i8, ptr %135, i64 %143
  br label %stbtt__find_table.exit.thread

145:                                              ; preds = %115, %105, %95, %81
  %indvars.iv.next = add nuw nsw i64 %indvars.iv, 1
  %exitcond.not = icmp eq i64 %indvars.iv.next, %wide.trip.count
  br i1 %exitcond.not, label %stbtt__find_table.exit.thread, label %81, !llvm.loop !236

stbtt__find_table.exit.thread:                    ; preds = %41, %145, %60, %6, %125, %stbtt__find_table.exit
  %.0 = phi ptr [ %144, %125 ], [ null, %stbtt__find_table.exit ], [ null, %6 ], [ null, %60 ], [ null, %145 ], [ null, %41 ]
  ret ptr %.0
}